; ModuleID = 'source-C-CXX/39/3066.c'
source_filename = "source-C-CXX/39/3066.c"
target datalayout = "e-m:e-p270:32:32-p271:32:32-p272:64:64-i64:64-f80:128-n8:16:32:64-S128"
target triple = "x86_64-pc-linux-gnu"

@.str = private unnamed_addr constant [4 x i8] c"%lf\00", align 1
@.str.1 = private unnamed_addr constant [14 x i8] c"Invalid input\00", align 1
@.str.2 = private unnamed_addr constant [6 x i8] c"%.4lf\00", align 1

; Function Attrs: nofree nounwind sspstrong uwtable
define dso_local i32 @main() local_unnamed_addr #0 {
  %1 = alloca double, align 8
  %2 = alloca double, align 8
  %3 = alloca double, align 8
  %4 = alloca double, align 8
  %5 = alloca double, align 8
  %6 = bitcast double* %1 to i8*
  call void @llvm.lifetime.start.p0i8(i64 8, i8* nonnull %6) #4
  %7 = bitcast double* %2 to i8*
  call void @llvm.lifetime.start.p0i8(i64 8, i8* nonnull %7) #4
  %8 = bitcast double* %3 to i8*
  call void @llvm.lifetime.start.p0i8(i64 8, i8* nonnull %8) #4
  %9 = bitcast double* %4 to i8*
  call void @llvm.lifetime.start.p0i8(i64 8, i8* nonnull %9) #4
  %10 = bitcast double* %5 to i8*
  call void @llvm.lifetime.start.p0i8(i64 8, i8* nonnull %10) #4
  %11 = call i32 (i8*, ...) @__isoc99_scanf(i8* getelementptr inbounds ([4 x i8], [4 x i8]* @.str, i64 0, i64 0), double* nonnull %1)
  %12 = call i32 (i8*, ...) @__isoc99_scanf(i8* getelementptr inbounds ([4 x i8], [4 x i8]* @.str, i64 0, i64 0), double* nonnull %2)
  %13 = call i32 (i8*, ...) @__isoc99_scanf(i8* getelementptr inbounds ([4 x i8], [4 x i8]* @.str, i64 0, i64 0), double* nonnull %3)
  %14 = call i32 (i8*, ...) @__isoc99_scanf(i8* getelementptr inbounds ([4 x i8], [4 x i8]* @.str, i64 0, i64 0), double* nonnull %4)
  %15 = call i32 (i8*, ...) @__isoc99_scanf(i8* getelementptr inbounds ([4 x i8], [4 x i8]* @.str, i64 0, i64 0), double* nonnull %5)
  %16 = load double, double* %5, align 8, !tbaa !5
  %17 = fmul double %16, 0x401921FB4D12D84A
  %18 = fdiv double %17, 7.200000e+02
  %19 = load double, double* %1, align 8, !tbaa !5
  %20 = load double, double* %2, align 8, !tbaa !5
  %21 = fadd double %19, %20
  %22 = load double, double* %3, align 8, !tbaa !5
  %23 = fadd double %21, %22
  %24 = load double, double* %4, align 8, !tbaa !5
  %25 = fsub double %23, %24
  %26 = fsub double %21, %22
  %27 = fadd double %26, %24
  %28 = insertelement <2 x double> poison, double %20, i32 0
  %29 = insertelement <2 x double> %28, double %19, i32 1
  %30 = insertelement <2 x double> poison, double %19, i32 0
  %31 = insertelement <2 x double> %30, double %20, i32 1
  %32 = fsub <2 x double> %29, %31
  %33 = insertelement <2 x double> poison, double %22, i32 0
  %34 = shufflevector <2 x double> %33, <2 x double> poison, <2 x i32> zeroinitializer
  %35 = fadd <2 x double> %32, %34
  %36 = insertelement <2 x double> poison, double %24, i32 0
  %37 = shufflevector <2 x double> %36, <2 x double> poison, <2 x i32> zeroinitializer
  %38 = fadd <2 x double> %35, %37
  %39 = extractelement <2 x double> %38, i32 1
  %40 = insertelement <2 x double> poison, double %25, i32 0
  %41 = insertelement <2 x double> %40, double %19, i32 1
  %42 = insertelement <2 x double> poison, double %27, i32 0
  %43 = insertelement <2 x double> %42, double %20, i32 1
  %44 = fmul <2 x double> %41, %43
  %45 = insertelement <2 x double> poison, double %39, i32 0
  %46 = insertelement <2 x double> %45, double %22, i32 1
  %47 = fmul <2 x double> %46, %44
  %48 = insertelement <2 x double> %38, double %24, i32 1
  %49 = fmul <2 x double> %48, %47
  %50 = call double @cos(double %18) #4
  %51 = fmul double %50, %50
  %52 = insertelement <2 x double> <double 6.250000e-02, double poison>, double %51, i32 1
  %53 = fmul <2 x double> %49, %52
  %54 = shufflevector <2 x double> %53, <2 x double> poison, <2 x i32> <i32 1, i32 undef>
  %55 = fsub <2 x double> %53, %54
  %56 = extractelement <2 x double> %55, i32 0
  %57 = fcmp olt double %56, 0.000000e+00
  br i1 %57, label %58, label %60

58:                                               ; preds = %0
  %59 = call i32 (i8*, ...) @printf(i8* nonnull dereferenceable(1) getelementptr inbounds ([14 x i8], [14 x i8]* @.str.1, i64 0, i64 0))
  br label %60

60:                                               ; preds = %58, %0
  %61 = fcmp ult double %56, 0.000000e+00
  br i1 %61, label %65, label %62

62:                                               ; preds = %60
  %63 = call double @sqrt(double %56) #4
  %64 = call i32 (i8*, ...) @printf(i8* nonnull dereferenceable(1) getelementptr inbounds ([6 x i8], [6 x i8]* @.str.2, i64 0, i64 0), double %63)
  br label %65

65:                                               ; preds = %62, %60
  call void @llvm.lifetime.end.p0i8(i64 8, i8* nonnull %10) #4
  call void @llvm.lifetime.end.p0i8(i64 8, i8* nonnull %9) #4
  call void @llvm.lifetime.end.p0i8(i64 8, i8* nonnull %8) #4
  call void @llvm.lifetime.end.p0i8(i64 8, i8* nonnull %7) #4
  call void @llvm.lifetime.end.p0i8(i64 8, i8* nonnull %6) #4
  ret i32 0
}

; Function Attrs: argmemonly mustprogress nofree nosync nounwind willreturn
declare void @llvm.lifetime.start.p0i8(i64 immarg, i8* nocapture) #1

; Function Attrs: nofree nounwind
declare noundef i32 @__isoc99_scanf(i8* nocapture noundef readonly, ...) local_unnamed_addr #2

; Function Attrs: mustprogress nofree nounwind willreturn
declare double @cos(double) local_unnamed_addr #3

; Function Attrs: nofree nounwind
declare noundef i32 @printf(i8* nocapture noundef readonly, ...) local_unnamed_addr #2

; Function Attrs: mustprogress nofree nounwind willreturn
declare double @sqrt(double) local_unnamed_addr #3

; Function Attrs: argmemonly mustprogress nofree nosync nounwind willreturn
declare void @llvm.lifetime.end.p0i8(i64 immarg, i8* nocapture) #1


!llvm.module.flags = !{!0, !1, !2, !3}
!llvm.ident = !{!4}

!0 = !{i32 1, !"wchar_size", i32 4}
!1 = !{i32 7, !"PIC Level", i32 2}
!2 = !{i32 7, !"PIE Level", i32 2}
!3 = !{i32 7, !"uwtable", i32 1}
!4 = !{!"clang version 13.0.0"}
!5 = !{!6, !6, i64 0}
!6 = !{!"double", !7, i64 0}
!7 = !{!"omnipotent char", !8, i64 0}
!8 = !{!"Simple C/C++ TBAA"}
